target datalayout = "e-m:e-p270:32:32-p271:32:32-p272:64:64-i64:64-i128:128-f80:128-n8:16:32:64-S128"
target triple = "x86_64-pc-linux-gnu"

%struct.SDL_WaylandUserdata = type { i32, ptr }
%struct.SDL_WaylandPrimarySelectionSource = type { ptr, ptr, ptr, ptr, %struct.SDL_WaylandUserdata }
%struct.SDL_WaylandPrimarySelectionDevice = type { ptr, ptr, i32, ptr, ptr }

@WAYLAND_wl_proxy_marshal_flags = external global ptr, align 8
@WAYLAND_wl_proxy_get_version = external global ptr, align 8

; Function Attrs: inlinehint nounwind uwtable
define internal void @zwp_primary_selection_source_v1_destroy(ptr noundef %0) #3 {
  %2 = alloca ptr, align 8
  store ptr %0, ptr %2, align 8
  %3 = load ptr, ptr @WAYLAND_wl_proxy_marshal_flags, align 8
  %4 = load ptr, ptr %2, align 8
  %5 = load ptr, ptr @WAYLAND_wl_proxy_get_version, align 8
  %6 = load ptr, ptr %2, align 8
  %7 = call i32 %5(ptr noundef %6)
  %8 = call ptr (ptr, i32, ptr, i32, i32, ...) %3(ptr noundef %4, i32 noundef 1, ptr noundef null, i32 noundef %7, i32 noundef 1)
  ret void
}

; Function Attrs: nounwind uwtable
define hidden void @Wayland_primary_selection_source_destroy(ptr noundef %0) #0 {
  %2 = alloca ptr, align 8
  %3 = alloca ptr, align 8
  store ptr %0, ptr %2, align 8
  %4 = load ptr, ptr %2, align 8
  %5 = icmp ne ptr %4, null
  br i1 %5, label %6, label %37

6:                                                ; preds = %1
  call void @llvm.lifetime.start.p0(i64 8, ptr %3) #9
  %7 = load ptr, ptr %2, align 8
  %8 = getelementptr inbounds nuw %struct.SDL_WaylandPrimarySelectionSource, ptr %7, i32 0, i32 2
  %9 = load ptr, ptr %8, align 8
  store ptr %9, ptr %3, align 8
  %10 = load ptr, ptr %3, align 8
  %11 = icmp ne ptr %10, null
  br i1 %11, label %12, label %21

12:                                               ; preds = %6
  %13 = load ptr, ptr %3, align 8
  %14 = getelementptr inbounds nuw %struct.SDL_WaylandPrimarySelectionDevice, ptr %13, i32 0, i32 3
  %15 = load ptr, ptr %14, align 8
  %16 = load ptr, ptr %2, align 8
  %17 = icmp eq ptr %15, %16
  br i1 %17, label %18, label %21

18:                                               ; preds = %12
  %19 = load ptr, ptr %3, align 8
  %20 = getelementptr inbounds nuw %struct.SDL_WaylandPrimarySelectionDevice, ptr %19, i32 0, i32 3
  store ptr null, ptr %20, align 8
  br label %21

21:                                               ; preds = %18, %12, %6
  %22 = load ptr, ptr %2, align 8
  %23 = getelementptr inbounds nuw %struct.SDL_WaylandPrimarySelectionSource, ptr %22, i32 0, i32 0
  %24 = load ptr, ptr %23, align 8
  call void @zwp_primary_selection_source_v1_destroy(ptr noundef %24)
  %25 = load ptr, ptr %2, align 8
  %26 = getelementptr inbounds nuw %struct.SDL_WaylandPrimarySelectionSource, ptr %25, i32 0, i32 4
  %27 = getelementptr inbounds nuw %struct.SDL_WaylandUserdata, ptr %26, i32 0, i32 0
  %28 = load i32, ptr %27, align 8
  %29 = icmp eq i32 %28, 0
  br i1 %29, label %30, label %35

30:                                               ; preds = %21
  %31 = load ptr, ptr %2, align 8
  %32 = getelementptr inbounds nuw %struct.SDL_WaylandPrimarySelectionSource, ptr %31, i32 0, i32 4
  %33 = getelementptr inbounds nuw %struct.SDL_WaylandUserdata, ptr %32, i32 0, i32 1
  %34 = load ptr, ptr %33, align 8
  call void @SDL_free_REAL(ptr noundef %34)
  br label %35

35:                                               ; preds = %30, %21
  %36 = load ptr, ptr %2, align 8
  call void @SDL_free_REAL(ptr noundef %36)
  call void @llvm.lifetime.end.p0(i64 8, ptr %3) #9
  br label %37

37:                                               ; preds = %35, %1
  ret void
}