; Function Attrs: nounwind uwtable
define hidden void @Wayland_primary_selection_source_destroy(ptr noundef %0) local_unnamed_addr #0 {
  %.not = icmp eq ptr %0, null
  br i1 %.not, label %23, label %2

2:                                                ; preds = %1
  %3 = getelementptr inbounds nuw i8, ptr %0, i64 16
  %4 = load ptr, ptr %3, align 8
  %.not11 = icmp eq ptr %4, null
  br i1 %.not11, label %10, label %5

5:                                                ; preds = %2
  %6 = getelementptr inbounds nuw i8, ptr %4, i64 24
  %7 = load ptr, ptr %6, align 8
  %8 = icmp eq ptr %7, %0
  br i1 %8, label %9, label %10

9:                                                ; preds = %5
  store ptr null, ptr %6, align 8
  br label %10

10:                                               ; preds = %9, %5, %2
  %11 = load ptr, ptr %0, align 8
  %12 = load ptr, ptr @WAYLAND_wl_proxy_marshal_flags, align 8
  %13 = load ptr, ptr @WAYLAND_wl_proxy_get_version, align 8
  %14 = tail call i32 %13(ptr noundef %11) #12
  %15 = tail call ptr (ptr, i32, ptr, i32, i32, ...) %12(ptr noundef %11, i32 noundef 1, ptr noundef null, i32 noundef %14, i32 noundef 1) #12
  %16 = getelementptr inbounds nuw i8, ptr %0, i64 32
  %17 = load i32, ptr %16, align 8
  %18 = icmp eq i32 %17, 0
  br i1 %18, label %19, label %22

19:                                               ; preds = %10
  %20 = getelementptr inbounds nuw i8, ptr %0, i64 40
  %21 = load ptr, ptr %20, align 8
  tail call void @SDL_free_REAL(ptr noundef %21) #12
  br label %22

22:                                               ; preds = %19, %10
  tail call void @SDL_free_REAL(ptr noundef nonnull %0) #12
  br label %23

23:                                               ; preds = %22, %1
  ret void
}